target datalayout = "e-m:e-p270:32:32-p271:32:32-p272:64:64-i64:64-i128:128-f80:128-n8:16:32:64-S128"
target triple = "x86_64-pc-linux-gnu"

%struct.Abc_Obj_t_ = type { ptr, ptr, i32, i32, %struct.Vec_Int_t_, %struct.Vec_Int_t_, %union.anon, %union.anon.0 }
%struct.Vec_Int_t_ = type { i32, i32, ptr }
%union.anon = type { ptr }
%union.anon.0 = type { ptr }
%struct.Abc_Ntk_t_ = type { i32, i32, ptr, ptr, ptr, ptr, ptr, ptr, ptr, ptr, ptr, ptr, ptr, [11 x i32], i32, i32, i32, i32, ptr, i32, ptr, ptr, i32, i32, i32, double, i32, %struct.Vec_Int_t_, ptr, ptr, ptr, ptr, ptr, float, i32, ptr, ptr, ptr, ptr, ptr, ptr, ptr, ptr, ptr, ptr, ptr, ptr, ptr, ptr, ptr, ptr, ptr, ptr, ptr, ptr, ptr }

@.str.2 = private unnamed_addr constant [21 x i8] c"Node %s is not among\00", align 1
@.str.3 = private unnamed_addr constant [27 x i8] c" the fanins of node %s...\0A\00", align 1
@.str.5 = private unnamed_addr constant [28 x i8] c" the fanouts of node %s...\0A\00", align 1

; Function Attrs: nounwind uwtable
define internal void @Vec_IntWriteEntry(ptr noundef %0, i32 noundef %1, i32 noundef %2) #0 {
  %4 = alloca ptr, align 8
  %5 = alloca i32, align 4
  %6 = alloca i32, align 4
  store ptr %0, ptr %4, align 8
  store i32 %1, ptr %5, align 4
  store i32 %2, ptr %6, align 4
  %7 = load i32, ptr %6, align 4
  %8 = load ptr, ptr %4, align 8
  %9 = getelementptr inbounds %struct.Vec_Int_t_, ptr %8, i32 0, i32 2
  %10 = load ptr, ptr %9, align 8
  %11 = load i32, ptr %5, align 4
  %12 = sext i32 %11 to i64
  %13 = getelementptr inbounds i32, ptr %10, i64 %12
  store i32 %7, ptr %13, align 4
  ret void
}

; Function Attrs: nounwind uwtable
define internal i32 @Vec_IntFind(ptr noundef %0, i32 noundef %1) #0 {
  %3 = alloca i32, align 4
  %4 = alloca ptr, align 8
  %5 = alloca i32, align 4
  %6 = alloca i32, align 4
  store ptr %0, ptr %4, align 8
  store i32 %1, ptr %5, align 4
  store i32 0, ptr %6, align 4
  br label %7

7:                                                ; preds = %26, %2
  %8 = load i32, ptr %6, align 4
  %9 = load ptr, ptr %4, align 8
  %10 = getelementptr inbounds %struct.Vec_Int_t_, ptr %9, i32 0, i32 1
  %11 = load i32, ptr %10, align 4
  %12 = icmp slt i32 %8, %11
  br i1 %12, label %13, label %29

13:                                               ; preds = %7
  %14 = load ptr, ptr %4, align 8
  %15 = getelementptr inbounds %struct.Vec_Int_t_, ptr %14, i32 0, i32 2
  %16 = load ptr, ptr %15, align 8
  %17 = load i32, ptr %6, align 4
  %18 = sext i32 %17 to i64
  %19 = getelementptr inbounds i32, ptr %16, i64 %18
  %20 = load i32, ptr %19, align 4
  %21 = load i32, ptr %5, align 4
  %22 = icmp eq i32 %20, %21
  br i1 %22, label %23, label %25

23:                                               ; preds = %13
  %24 = load i32, ptr %6, align 4
  store i32 %24, ptr %3, align 4
  br label %30

25:                                               ; preds = %13
  br label %26

26:                                               ; preds = %25
  %27 = load i32, ptr %6, align 4
  %28 = add nsw i32 %27, 1
  store i32 %28, ptr %6, align 4
  br label %7, !llvm.loop !9

29:                                               ; preds = %7
  store i32 -1, ptr %3, align 4
  br label %30

30:                                               ; preds = %29, %23
  %31 = load i32, ptr %3, align 4
  ret i32 %31
}

; Function Attrs: nounwind uwtable
define ptr @Abc_ObjInsertBetween(ptr noundef %0, ptr noundef %1, i32 noundef %2) #0 {
  %4 = alloca ptr, align 8
  %5 = alloca ptr, align 8
  %6 = alloca ptr, align 8
  %7 = alloca i32, align 4
  %8 = alloca ptr, align 8
  %9 = alloca i32, align 4
  %10 = alloca i32, align 4
  store ptr %0, ptr %5, align 8
  store ptr %1, ptr %6, align 8
  store i32 %2, ptr %7, align 4
  %11 = load ptr, ptr %5, align 8
  %12 = getelementptr inbounds %struct.Abc_Obj_t_, ptr %11, i32 0, i32 5
  %13 = load ptr, ptr %6, align 8
  %14 = getelementptr inbounds %struct.Abc_Obj_t_, ptr %13, i32 0, i32 2
  %15 = load i32, ptr %14, align 8
  %16 = call i32 @Vec_IntFind(ptr noundef %12, i32 noundef %15)
  store i32 %16, ptr %9, align 4
  %17 = icmp eq i32 %16, -1
  br i1 %17, label %18, label %25

18:                                               ; preds = %3
  %19 = load ptr, ptr %6, align 8
  %20 = call ptr @Abc_ObjName(ptr noundef %19)
  %21 = call i32 (ptr, ...) @printf(ptr noundef @.str.2, ptr noundef %20)
  %22 = load ptr, ptr %5, align 8
  %23 = call ptr @Abc_ObjName(ptr noundef %22)
  %24 = call i32 (ptr, ...) @printf(ptr noundef @.str.5, ptr noundef %23)
  store ptr null, ptr %4, align 8
  br label %79

25:                                               ; preds = %3
  %26 = load ptr, ptr %6, align 8
  %27 = getelementptr inbounds %struct.Abc_Obj_t_, ptr %26, i32 0, i32 4
  %28 = load ptr, ptr %5, align 8
  %29 = getelementptr inbounds %struct.Abc_Obj_t_, ptr %28, i32 0, i32 2
  %30 = load i32, ptr %29, align 8
  %31 = call i32 @Vec_IntFind(ptr noundef %27, i32 noundef %30)
  store i32 %31, ptr %10, align 4
  %32 = icmp eq i32 %31, -1
  br i1 %32, label %33, label %40

33:                                               ; preds = %25
  %34 = load ptr, ptr %5, align 8
  %35 = call ptr @Abc_ObjName(ptr noundef %34)
  %36 = call i32 (ptr, ...) @printf(ptr noundef @.str.2, ptr noundef %35)
  %37 = load ptr, ptr %6, align 8
  %38 = call ptr @Abc_ObjName(ptr noundef %37)
  %39 = call i32 (ptr, ...) @printf(ptr noundef @.str.3, ptr noundef %38)
  store ptr null, ptr %4, align 8
  br label %79

40:                                               ; preds = %25
  %41 = load ptr, ptr %5, align 8
  %42 = getelementptr inbounds %struct.Abc_Obj_t_, ptr %41, i32 0, i32 0
  %43 = load ptr, ptr %42, align 8
  %44 = load i32, ptr %7, align 4
  %45 = call ptr @Abc_NtkCreateObj(ptr noundef %43, i32 noundef %44)
  store ptr %45, ptr %8, align 8
  %46 = load ptr, ptr %8, align 8
  %47 = getelementptr inbounds %struct.Abc_Obj_t_, ptr %46, i32 0, i32 0
  %48 = load ptr, ptr %47, align 8
  %49 = getelementptr inbounds %struct.Abc_Ntk_t_, ptr %48, i32 0, i32 29
  %50 = load ptr, ptr %49, align 8
  %51 = load ptr, ptr %8, align 8
  %52 = getelementptr inbounds %struct.Abc_Obj_t_, ptr %51, i32 0, i32 4
  %53 = load ptr, ptr %5, align 8
  %54 = getelementptr inbounds %struct.Abc_Obj_t_, ptr %53, i32 0, i32 2
  %55 = load i32, ptr %54, align 8
  call void @Vec_IntPushMem(ptr noundef %50, ptr noundef %52, i32 noundef %55)
  %56 = load ptr, ptr %8, align 8
  %57 = getelementptr inbounds %struct.Abc_Obj_t_, ptr %56, i32 0, i32 0
  %58 = load ptr, ptr %57, align 8
  %59 = getelementptr inbounds %struct.Abc_Ntk_t_, ptr %58, i32 0, i32 29
  %60 = load ptr, ptr %59, align 8
  %61 = load ptr, ptr %8, align 8
  %62 = getelementptr inbounds %struct.Abc_Obj_t_, ptr %61, i32 0, i32 5
  %63 = load ptr, ptr %6, align 8
  %64 = getelementptr inbounds %struct.Abc_Obj_t_, ptr %63, i32 0, i32 2
  %65 = load i32, ptr %64, align 8
  call void @Vec_IntPushMem(ptr noundef %60, ptr noundef %62, i32 noundef %65)
  %66 = load ptr, ptr %5, align 8
  %67 = getelementptr inbounds %struct.Abc_Obj_t_, ptr %66, i32 0, i32 5
  %68 = load i32, ptr %9, align 4
  %69 = load ptr, ptr %8, align 8
  %70 = getelementptr inbounds %struct.Abc_Obj_t_, ptr %69, i32 0, i32 2
  %71 = load i32, ptr %70, align 8
  call void @Vec_IntWriteEntry(ptr noundef %67, i32 noundef %68, i32 noundef %71)
  %72 = load ptr, ptr %6, align 8
  %73 = getelementptr inbounds %struct.Abc_Obj_t_, ptr %72, i32 0, i32 4
  %74 = load i32, ptr %10, align 4
  %75 = load ptr, ptr %8, align 8
  %76 = getelementptr inbounds %struct.Abc_Obj_t_, ptr %75, i32 0, i32 2
  %77 = load i32, ptr %76, align 8
  call void @Vec_IntWriteEntry(ptr noundef %73, i32 noundef %74, i32 noundef %77)
  %78 = load ptr, ptr %8, align 8
  store ptr %78, ptr %4, align 8
  br label %79

79:                                               ; preds = %40, %33, %18
  %80 = load ptr, ptr %4, align 8
  ret ptr %80
}