; Function Attrs: nounwind uwtable
define noundef ptr @Abc_ObjInsertBetween(ptr noundef %0, ptr noundef %1, i32 noundef %2) local_unnamed_addr #0 {
  %4 = getelementptr inbounds nuw i8, ptr %1, i64 16
  %5 = load i32, ptr %4, align 8
  %6 = getelementptr inbounds nuw i8, ptr %0, i64 44
  %7 = load i32, ptr %6, align 4
  %8 = icmp sgt i32 %7, 0
  br i1 %8, label %.lr.ph.i, label %Vec_IntFind.exit.thread

.lr.ph.i:                                         ; preds = %3
  %9 = getelementptr i8, ptr %0, i64 48
  %10 = load ptr, ptr %9, align 8
  %wide.trip.count.i = zext nneg i32 %7 to i64
  br label %11

11:                                               ; preds = %15, %.lr.ph.i
  %indvars.iv.i = phi i64 [ 0, %.lr.ph.i ], [ %indvars.iv.next.i, %15 ]
  %12 = getelementptr inbounds nuw i32, ptr %10, i64 %indvars.iv.i
  %13 = load i32, ptr %12, align 4
  %14 = icmp eq i32 %13, %5
  br i1 %14, label %Vec_IntFind.exit, label %15

15:                                               ; preds = %11
  %indvars.iv.next.i = add nuw nsw i64 %indvars.iv.i, 1
  %exitcond.not.i = icmp eq i64 %indvars.iv.next.i, %wide.trip.count.i
  br i1 %exitcond.not.i, label %Vec_IntFind.exit.thread, label %11, !llvm.loop !9

Vec_IntFind.exit.thread:                          ; preds = %15, %3
  %16 = tail call ptr @Abc_ObjName(ptr noundef %1) #8
  %17 = tail call i32 (ptr, ...) @printf(ptr noundef nonnull dereferenceable(1) @.str.2, ptr noundef %16)
  %18 = tail call ptr @Abc_ObjName(ptr noundef %0) #8
  %19 = tail call i32 (ptr, ...) @printf(ptr noundef nonnull dereferenceable(1) @.str.5, ptr noundef %18)
  br label %54

Vec_IntFind.exit:                                 ; preds = %11
  %20 = getelementptr inbounds nuw i8, ptr %0, i64 16
  %21 = load i32, ptr %20, align 8
  %22 = getelementptr inbounds nuw i8, ptr %1, i64 28
  %23 = load i32, ptr %22, align 4
  %24 = icmp sgt i32 %23, 0
  br i1 %24, label %.lr.ph.i27, label %Vec_IntFind.exit33.thread

.lr.ph.i27:                                       ; preds = %Vec_IntFind.exit
  %25 = getelementptr i8, ptr %1, i64 32
  %26 = load ptr, ptr %25, align 8
  %wide.trip.count.i28 = zext nneg i32 %23 to i64
  br label %27

27:                                               ; preds = %31, %.lr.ph.i27
  %indvars.iv.i29 = phi i64 [ 0, %.lr.ph.i27 ], [ %indvars.iv.next.i30, %31 ]
  %28 = getelementptr inbounds nuw i32, ptr %26, i64 %indvars.iv.i29
  %29 = load i32, ptr %28, align 4
  %30 = icmp eq i32 %29, %21
  br i1 %30, label %Vec_IntFind.exit33, label %31

31:                                               ; preds = %27
  %indvars.iv.next.i30 = add nuw nsw i64 %indvars.iv.i29, 1
  %exitcond.not.i31 = icmp eq i64 %indvars.iv.next.i30, %wide.trip.count.i28
  br i1 %exitcond.not.i31, label %Vec_IntFind.exit33.thread, label %27, !llvm.loop !9

Vec_IntFind.exit33.thread:                        ; preds = %31, %Vec_IntFind.exit
  %32 = tail call ptr @Abc_ObjName(ptr noundef %0) #8
  %33 = tail call i32 (ptr, ...) @printf(ptr noundef nonnull dereferenceable(1) @.str.2, ptr noundef %32)
  %34 = tail call ptr @Abc_ObjName(ptr noundef %1) #8
  %35 = tail call i32 (ptr, ...) @printf(ptr noundef nonnull dereferenceable(1) @.str.3, ptr noundef %34)
  br label %54

Vec_IntFind.exit33:                               ; preds = %27
  %36 = load ptr, ptr %0, align 8
  %37 = tail call ptr @Abc_NtkCreateObj(ptr noundef %36, i32 noundef %2) #8
  %38 = load ptr, ptr %37, align 8
  %39 = getelementptr inbounds nuw i8, ptr %38, i64 248
  %40 = load ptr, ptr %39, align 8
  %41 = getelementptr inbounds nuw i8, ptr %37, i64 24
  %42 = load i32, ptr %20, align 8
  tail call fastcc void @Vec_IntPushMem(ptr noundef %40, ptr noundef nonnull %41, i32 noundef %42)
  %43 = load ptr, ptr %37, align 8
  %44 = getelementptr inbounds nuw i8, ptr %43, i64 248
  %45 = load ptr, ptr %44, align 8
  %46 = getelementptr inbounds nuw i8, ptr %37, i64 40
  %47 = load i32, ptr %4, align 8
  tail call fastcc void @Vec_IntPushMem(ptr noundef %45, ptr noundef nonnull %46, i32 noundef %47)
  %48 = getelementptr inbounds nuw i8, ptr %37, i64 16
  %49 = load i32, ptr %48, align 8
  %.val25 = load ptr, ptr %9, align 8
  %sext = shl i64 %indvars.iv.i, 32
  %50 = ashr exact i64 %sext, 30
  %51 = getelementptr inbounds i8, ptr %.val25, i64 %50
  store i32 %49, ptr %51, align 4
  %.val = load ptr, ptr %25, align 8
  %sext36 = shl i64 %indvars.iv.i29, 32
  %52 = ashr exact i64 %sext36, 30
  %53 = getelementptr inbounds i8, ptr %.val, i64 %52
  store i32 %49, ptr %53, align 4
  br label %54

54:                                               ; preds = %Vec_IntFind.exit33, %Vec_IntFind.exit33.thread, %Vec_IntFind.exit.thread
  %.0 = phi ptr [ null, %Vec_IntFind.exit.thread ], [ null, %Vec_IntFind.exit33.thread ], [ %37, %Vec_IntFind.exit33 ]
  ret ptr %.0
}